(lp0
S'AcroForm'
p1
aS'AcroForm/DA'
p2
aS'AcroForm/DR/Encoding/PDFDocEncoding'
p3
aS'AcroForm/DR/Encoding/PDFDocEncoding/Differences'
p4
aS'AcroForm/DR/Encoding/PDFDocEncoding/Type'
p5
aS'AcroForm/DR/Font/Name'
p6
aS'AcroForm/DR/Font/Name/BaseFont'
p7
aS'AcroForm/DR/Font/Name/Encoding'
p8
aS'AcroForm/DR/Font/Name/FirstChar'
p9
aS'AcroForm/DR/Font/Name/FontDescriptor'
p10
aS'AcroForm/DR/Font/Name/LastChar'
p11
aS'AcroForm/DR/Font/Name/Name'
p12
aS'AcroForm/DR/Font/Name/Subtype'
p13
aS'AcroForm/DR/Font/Name/ToUnicode'
p14
aS'AcroForm/DR/Font/Name/ToUnicode/Filter'
p15
aS'AcroForm/DR/Font/Name/ToUnicode/Length'
p16
aS'AcroForm/DR/Font/Name/Type'
p17
aS'AcroForm/DR/Font/Name/Widths'
p18
aS'AcroForm/Fields'
p19
aS'AcroForm/Fields/AP/N'
p20
aS'AcroForm/Fields/AP/N/Name'
p21
aS'AcroForm/Fields/AP/N/Name/ProcSet'
p22
aS'AcroForm/Fields/DA'
p23
aS'AcroForm/Fields/F'
p24
aS'AcroForm/Fields/FT'
p25
aS'AcroForm/Fields/Ff'
p26
aS'AcroForm/Fields/MK/TP'
p27
aS'AcroForm/Fields/P'
p28
aS'AcroForm/Fields/Rect'
p29
aS'AcroForm/Fields/Subtype'
p30
aS'AcroForm/Fields/T'
p31
aS'AcroForm/Fields/TU'
p32
aS'AcroForm/Fields/Type'
p33
aS'AcroForm/XFA'
p34
aS'AcroForm/XFA/Filter'
p35
aS'AcroForm/XFA/Length'
p36
aS'AcroForm/XFA/Type'
p37
aS'JT'
p38
aS'JT/A'
p39
aS'JT/A/Dt'
p40
aS'JT/A/JTM'
p41
aS'JT/Cn'
p42
aS'JT/Cn/D'
p43
aS'JT/Cn/D/Fi'
p44
aS'JT/Cn/D/Fi/CP'
p45
aS'JT/Cn/D/Fi/Fi'
p46
aS'JT/Cn/D/P'
p47
aS'JT/Cn/D/P/JTF'
p48
aS'JT/Cn/D/P/MB'
p49
aS'JT/Cn/D/P/R'
p50
aS'JT/Cn/D/P/R/R'
p51
aS'JT/Cn/D/P/W'
p52
aS'JT/Cn/MS'
p53
aS'JT/Cn/MS/Me'
p54
aS'JT/Cn/MS/Me/Dm'
p55
aS'JT/Cn/Type'
p56
aS'JT/V'
p57
aS'Lang'
p58
aS'LastModified'
p59
aS'MarkInfo/LetterspaceFlags'
p60
aS'MarkInfo/Marked'
p61
aS'Metadata'
p62
aS'Metadata/Length'
p63
aS'Metadata/Subtype'
p64
aS'Metadata/Type'
p65
aS'Names'
p66
aS'Names/AP'
p67
aS'Names/Dests'
p68
aS'Names/Dests/Limits'
p69
aS'Names/Dests/Names'
p70
aS'Names/Dests/Names/D'
p71
aS'Names/EmbeddedFiles'
p72
aS'Names/EmbeddedFiles/Limits'
p73
aS'Names/EmbeddedFiles/Names'
p74
aS'Names/EmbeddedFiles/Names/EF/F'
p75
aS'Names/EmbeddedFiles/Names/EF/F/Filter'
p76
aS'Names/EmbeddedFiles/Names/EF/F/Length'
p77
aS'Names/EmbeddedFiles/Names/EF/F/Type'
p78
aS'Names/EmbeddedFiles/Names/F'
p79
aS'Names/EmbeddedFiles/Names/Type'
p80
aS'Names/JavaScript'
p81
aS'Names/JavaScript/Names'
p82
aS'Names/JavaScript/Names/JS'
p83
aS'Names/JavaScript/Names/S'
p84
aS'OCProperties/D/OFF'
p85
aS'OCProperties/D/ON'
p86
aS'OCProperties/D/Order'
p87
aS'OCProperties/D/RBGroups'
p88
aS'OCProperties/OCGs'
p89
aS'OCProperties/OCGs/Name'
p90
aS'OCProperties/OCGs/Type'
p91
aS'OCProperties/OCGs/Usage/CreatorInfo/Creator'
p92
aS'OCProperties/OCGs/Usage/CreatorInfo/Subtype'
p93
aS'OCProperties/OCGs/Usage/PageElement/Subtype'
p94
aS'OpenAction'
p95
aS'OpenAction/Annots'
p96
aS'OpenAction/Annots/A/S'
p97
aS'OpenAction/Annots/A/URI'
p98
aS'OpenAction/Annots/Border'
p99
aS'OpenAction/Annots/Rect'
p100
aS'OpenAction/Annots/Subtype'
p101
aS'OpenAction/Annots/Type'
p102
aS'OpenAction/Contents'
p103
aS'OpenAction/Contents/Filter'
p104
aS'OpenAction/Contents/Length'
p105
aS'OpenAction/CropBox'
p106
aS'OpenAction/D'
p107
aS'OpenAction/D/Annots'
p108
aS'OpenAction/D/Annots/Border'
p109
aS'OpenAction/D/Annots/Rect'
p110
aS'OpenAction/D/Annots/Subtype'
p111
aS'OpenAction/D/Annots/Type'
p112
aS'OpenAction/D/ArtBox'
p113
aS'OpenAction/D/BleedBox'
p114
aS'OpenAction/D/Contents'
p115
aS'OpenAction/D/Contents/Filter'
p116
aS'OpenAction/D/Contents/Length'
p117
aS'OpenAction/D/Count'
p118
aS'OpenAction/D/CropBox'
p119
aS'OpenAction/D/MediaBox'
p120
aS'OpenAction/D/Resources'
p121
aS'OpenAction/D/Resources/ColorSpace/Name'
p122
aS'OpenAction/D/Resources/ColorSpace/Name/Alternate'
p123
aS'OpenAction/D/Resources/ColorSpace/Name/Domain'
p124
aS'OpenAction/D/Resources/ColorSpace/Name/Filter'
p125
aS'OpenAction/D/Resources/ColorSpace/Name/FunctionType'
p126
aS'OpenAction/D/Resources/ColorSpace/Name/Length'
p127
aS'OpenAction/D/Resources/ColorSpace/Name/N'
p128
aS'OpenAction/D/Resources/ColorSpace/Name/Range'
p129
aS'OpenAction/D/Resources/ExtGState/Name'
p130
aS'OpenAction/D/Resources/ExtGState/Name/AIS'
p131
aS'OpenAction/D/Resources/ExtGState/Name/BM'
p132
aS'OpenAction/D/Resources/ExtGState/Name/CA'
p133
aS'OpenAction/D/Resources/ExtGState/Name/OP'
p134
aS'OpenAction/D/Resources/ExtGState/Name/OPM'
p135
aS'OpenAction/D/Resources/ExtGState/Name/SA'
p136
aS'OpenAction/D/Resources/ExtGState/Name/SM'
p137
aS'OpenAction/D/Resources/ExtGState/Name/SMask'
p138
aS'OpenAction/D/Resources/ExtGState/Name/Type'
p139
aS'OpenAction/D/Resources/ExtGState/Name/ca'
p140
aS'OpenAction/D/Resources/ExtGState/Name/op'
p141
aS'OpenAction/D/Resources/Font/Name'
p142
aS'OpenAction/D/Resources/Font/Name/BaseFont'
p143
aS'OpenAction/D/Resources/Font/Name/DescendantFonts'
p144
aS'OpenAction/D/Resources/Font/Name/Encoding'
p145
aS'OpenAction/D/Resources/Font/Name/Encoding/Differences'
p146
aS'OpenAction/D/Resources/Font/Name/Encoding/Type'
p147
aS'OpenAction/D/Resources/Font/Name/FirstChar'
p148
aS'OpenAction/D/Resources/Font/Name/FontDescriptor'
p149
aS'OpenAction/D/Resources/Font/Name/FontDescriptor/Ascent'
p150
aS'OpenAction/D/Resources/Font/Name/FontDescriptor/CapHeight'
p151
aS'OpenAction/D/Resources/Font/Name/FontDescriptor/CharSet'
p152
aS'OpenAction/D/Resources/Font/Name/FontDescriptor/Descent'
p153
aS'OpenAction/D/Resources/Font/Name/FontDescriptor/Flags'
p154
aS'OpenAction/D/Resources/Font/Name/FontDescriptor/FontBBox'
p155
aS'OpenAction/D/Resources/Font/Name/FontDescriptor/FontFamily'
p156
aS'OpenAction/D/Resources/Font/Name/FontDescriptor/FontFile2'
p157
aS'OpenAction/D/Resources/Font/Name/FontDescriptor/FontFile2/Filter'
p158
aS'OpenAction/D/Resources/Font/Name/FontDescriptor/FontFile2/Length'
p159
aS'OpenAction/D/Resources/Font/Name/FontDescriptor/FontFile2/Length1'
p160
aS'OpenAction/D/Resources/Font/Name/FontDescriptor/FontFile3'
p161
aS'OpenAction/D/Resources/Font/Name/FontDescriptor/FontFile3/Filter'
p162
aS'OpenAction/D/Resources/Font/Name/FontDescriptor/FontFile3/Length'
p163
aS'OpenAction/D/Resources/Font/Name/FontDescriptor/FontFile3/Subtype'
p164
aS'OpenAction/D/Resources/Font/Name/FontDescriptor/FontName'
p165
aS'OpenAction/D/Resources/Font/Name/FontDescriptor/FontStretch'
p166
aS'OpenAction/D/Resources/Font/Name/FontDescriptor/FontWeight'
p167
aS'OpenAction/D/Resources/Font/Name/FontDescriptor/ItalicAngle'
p168
aS'OpenAction/D/Resources/Font/Name/FontDescriptor/StemH'
p169
aS'OpenAction/D/Resources/Font/Name/FontDescriptor/StemV'
p170
aS'OpenAction/D/Resources/Font/Name/FontDescriptor/Type'
p171
aS'OpenAction/D/Resources/Font/Name/FontDescriptor/XHeight'
p172
aS'OpenAction/D/Resources/Font/Name/LastChar'
p173
aS'OpenAction/D/Resources/Font/Name/Subtype'
p174
aS'OpenAction/D/Resources/Font/Name/ToUnicode'
p175
aS'OpenAction/D/Resources/Font/Name/ToUnicode/Filter'
p176
aS'OpenAction/D/Resources/Font/Name/ToUnicode/Length'
p177
aS'OpenAction/D/Resources/Font/Name/Type'
p178
aS'OpenAction/D/Resources/Font/Name/Widths'
p179
aS'OpenAction/D/Resources/ProcSet'
p180
aS'OpenAction/D/Resources/XObject/Name'
p181
aS'OpenAction/D/Resources/XObject/Name/BitsPerComponent'
p182
aS'OpenAction/D/Resources/XObject/Name/ColorSpace'
p183
aS'OpenAction/D/Resources/XObject/Name/Filter'
p184
aS'OpenAction/D/Resources/XObject/Name/Height'
p185
aS'OpenAction/D/Resources/XObject/Name/Length'
p186
aS'OpenAction/D/Resources/XObject/Name/Name'
p187
aS'OpenAction/D/Resources/XObject/Name/Subtype'
p188
aS'OpenAction/D/Resources/XObject/Name/Type'
p189
aS'OpenAction/D/Resources/XObject/Name/Width'
p190
aS'OpenAction/D/Rotate'
p191
aS'OpenAction/D/TrimBox'
p192
aS'OpenAction/D/Type'
p193
aS'OpenAction/Group/CS'
p194
aS'OpenAction/Group/I'
p195
aS'OpenAction/Group/S'
p196
aS'OpenAction/MediaBox'
p197
aS'OpenAction/Resources'
p198
aS'OpenAction/Resources/ColorSpace/Name'
p199
aS'OpenAction/Resources/ColorSpace/Name/Length'
p200
aS'OpenAction/Resources/ExtGState/Name'
p201
aS'OpenAction/Resources/ExtGState/Name/OP'
p202
aS'OpenAction/Resources/ExtGState/Name/OPM'
p203
aS'OpenAction/Resources/ExtGState/Name/SA'
p204
aS'OpenAction/Resources/ExtGState/Name/SM'
p205
aS'OpenAction/Resources/ExtGState/Name/Type'
p206
aS'OpenAction/Resources/Font/Name'
p207
aS'OpenAction/Resources/Font/Name/BaseFont'
p208
aS'OpenAction/Resources/Font/Name/DescendantFonts'
p209
aS'OpenAction/Resources/Font/Name/DescendantFonts/BaseFont'
p210
aS'OpenAction/Resources/Font/Name/DescendantFonts/CIDSystemInfo/Ordering'
p211
aS'OpenAction/Resources/Font/Name/DescendantFonts/CIDSystemInfo/Registry'
p212
aS'OpenAction/Resources/Font/Name/DescendantFonts/CIDSystemInfo/Supplement'
p213
aS'OpenAction/Resources/Font/Name/DescendantFonts/CIDToGIDMap'
p214
aS'OpenAction/Resources/Font/Name/DescendantFonts/DW'
p215
aS'OpenAction/Resources/Font/Name/DescendantFonts/FontDescriptor'
p216
aS'OpenAction/Resources/Font/Name/DescendantFonts/FontDescriptor/Ascent'
p217
aS'OpenAction/Resources/Font/Name/DescendantFonts/FontDescriptor/CapHeight'
p218
aS'OpenAction/Resources/Font/Name/DescendantFonts/FontDescriptor/Descent'
p219
aS'OpenAction/Resources/Font/Name/DescendantFonts/FontDescriptor/Flags'
p220
aS'OpenAction/Resources/Font/Name/DescendantFonts/FontDescriptor/FontBBox'
p221
aS'OpenAction/Resources/Font/Name/DescendantFonts/FontDescriptor/FontFile2'
p222
aS'OpenAction/Resources/Font/Name/DescendantFonts/FontDescriptor/FontFile2/Filter'
p223
aS'OpenAction/Resources/Font/Name/DescendantFonts/FontDescriptor/FontFile2/Length'
p224
aS'OpenAction/Resources/Font/Name/DescendantFonts/FontDescriptor/FontFile2/Length1'
p225
aS'OpenAction/Resources/Font/Name/DescendantFonts/FontDescriptor/FontName'
p226
aS'OpenAction/Resources/Font/Name/DescendantFonts/FontDescriptor/ItalicAngle'
p227
aS'OpenAction/Resources/Font/Name/DescendantFonts/FontDescriptor/StemV'
p228
aS'OpenAction/Resources/Font/Name/DescendantFonts/FontDescriptor/Type'
p229
aS'OpenAction/Resources/Font/Name/DescendantFonts/Subtype'
p230
aS'OpenAction/Resources/Font/Name/DescendantFonts/Type'
p231
aS'OpenAction/Resources/Font/Name/DescendantFonts/W'
p232
aS'OpenAction/Resources/Font/Name/Encoding'
p233
aS'OpenAction/Resources/Font/Name/Encoding/Differences'
p234
aS'OpenAction/Resources/Font/Name/Encoding/Type'
p235
aS'OpenAction/Resources/Font/Name/FirstChar'
p236
aS'OpenAction/Resources/Font/Name/FontDescriptor'
p237
aS'OpenAction/Resources/Font/Name/FontDescriptor/Ascent'
p238
aS'OpenAction/Resources/Font/Name/FontDescriptor/CapHeight'
p239
aS'OpenAction/Resources/Font/Name/FontDescriptor/Descent'
p240
aS'OpenAction/Resources/Font/Name/FontDescriptor/Flags'
p241
aS'OpenAction/Resources/Font/Name/FontDescriptor/FontBBox'
p242
aS'OpenAction/Resources/Font/Name/FontDescriptor/FontName'
p243
aS'OpenAction/Resources/Font/Name/FontDescriptor/ItalicAngle'
p244
aS'OpenAction/Resources/Font/Name/FontDescriptor/StemV'
p245
aS'OpenAction/Resources/Font/Name/FontDescriptor/Type'
p246
aS'OpenAction/Resources/Font/Name/FontDescriptor/XHeight'
p247
aS'OpenAction/Resources/Font/Name/LastChar'
p248
aS'OpenAction/Resources/Font/Name/Subtype'
p249
aS'OpenAction/Resources/Font/Name/ToUnicode'
p250
aS'OpenAction/Resources/Font/Name/ToUnicode/Filter'
p251
aS'OpenAction/Resources/Font/Name/ToUnicode/Length'
p252
aS'OpenAction/Resources/Font/Name/Type'
p253
aS'OpenAction/Resources/Font/Name/Widths'
p254
aS'OpenAction/Resources/ProcSet'
p255
aS'OpenAction/Resources/XObject/Name'
p256
aS'OpenAction/Resources/XObject/Name/BitsPerComponent'
p257
aS'OpenAction/Resources/XObject/Name/ColorSpace'
p258
aS'OpenAction/Resources/XObject/Name/Filter'
p259
aS'OpenAction/Resources/XObject/Name/Height'
p260
aS'OpenAction/Resources/XObject/Name/Length'
p261
aS'OpenAction/Resources/XObject/Name/Subtype'
p262
aS'OpenAction/Resources/XObject/Name/Type'
p263
aS'OpenAction/Resources/XObject/Name/Width'
p264
aS'OpenAction/Rotate'
p265
aS'OpenAction/S'
p266
aS'OpenAction/Type'
p267
aS'Outlines'
p268
aS'Outlines/A'
p269
aS'Outlines/A/D'
p270
aS'Outlines/A/D/Contents'
p271
aS'Outlines/A/D/Contents/Filter'
p272
aS'Outlines/A/D/Contents/Length'
p273
aS'Outlines/A/D/CropBox'
p274
aS'Outlines/A/D/MediaBox'
p275
aS'Outlines/A/D/Resources/ColorSpace/Name'
p276
aS'Outlines/A/D/Resources/ExtGState/Name'
p277
aS'Outlines/A/D/Resources/ExtGState/Name/OP'
p278
aS'Outlines/A/D/Resources/ExtGState/Name/OPM'
p279
aS'Outlines/A/D/Resources/ExtGState/Name/SA'
p280
aS'Outlines/A/D/Resources/ExtGState/Name/Type'
p281
aS'Outlines/A/D/Resources/ExtGState/Name/op'
p282
aS'Outlines/A/D/Resources/Font/Name'
p283
aS'Outlines/A/D/Resources/Font/Name/BaseFont'
p284
aS'Outlines/A/D/Resources/Font/Name/Encoding'
p285
aS'Outlines/A/D/Resources/Font/Name/FirstChar'
p286
aS'Outlines/A/D/Resources/Font/Name/FontDescriptor'
p287
aS'Outlines/A/D/Resources/Font/Name/FontDescriptor/Ascent'
p288
aS'Outlines/A/D/Resources/Font/Name/FontDescriptor/CapHeight'
p289
aS'Outlines/A/D/Resources/Font/Name/FontDescriptor/Descent'
p290
aS'Outlines/A/D/Resources/Font/Name/FontDescriptor/Flags'
p291
aS'Outlines/A/D/Resources/Font/Name/FontDescriptor/FontBBox'
p292
aS'Outlines/A/D/Resources/Font/Name/FontDescriptor/FontName'
p293
aS'Outlines/A/D/Resources/Font/Name/FontDescriptor/ItalicAngle'
p294
aS'Outlines/A/D/Resources/Font/Name/FontDescriptor/StemV'
p295
aS'Outlines/A/D/Resources/Font/Name/FontDescriptor/Type'
p296
aS'Outlines/A/D/Resources/Font/Name/FontDescriptor/XHeight'
p297
aS'Outlines/A/D/Resources/Font/Name/LastChar'
p298
aS'Outlines/A/D/Resources/Font/Name/Subtype'
p299
aS'Outlines/A/D/Resources/Font/Name/ToUnicode'
p300
aS'Outlines/A/D/Resources/Font/Name/ToUnicode/Filter'
p301
aS'Outlines/A/D/Resources/Font/Name/ToUnicode/Length'
p302
aS'Outlines/A/D/Resources/Font/Name/Type'
p303
aS'Outlines/A/D/Resources/Font/Name/Widths'
p304
aS'Outlines/A/D/Resources/ProcSet'
p305
aS'Outlines/A/D/Resources/XObject/Name'
p306
aS'Outlines/A/D/Resources/XObject/Name/BitsPerComponent'
p307
aS'Outlines/A/D/Resources/XObject/Name/ColorSpace'
p308
aS'Outlines/A/D/Resources/XObject/Name/Filter'
p309
aS'Outlines/A/D/Resources/XObject/Name/Height'
p310
aS'Outlines/A/D/Resources/XObject/Name/Length'
p311
aS'Outlines/A/D/Resources/XObject/Name/Subtype'
p312
aS'Outlines/A/D/Resources/XObject/Name/Type'
p313
aS'Outlines/A/D/Resources/XObject/Name/Width'
p314
aS'Outlines/A/D/Rotate'
p315
aS'Outlines/A/D/Type'
p316
aS'Outlines/A/S'
p317
aS'Outlines/Count'
p318
aS'Outlines/Dest'
p319
aS'Outlines/SE'
p320
aS'Outlines/SE/Info'
p321
aS'Outlines/SE/Info/Name'
p322
aS'Outlines/SE/Metadata'
p323
aS'Outlines/SE/Metadata/Length'
p324
aS'Outlines/SE/Metadata/Subtype'
p325
aS'Outlines/SE/Metadata/Type'
p326
aS'Outlines/SE/Pg'
p327
aS'Outlines/SE/S'
p328
aS'Outlines/Title'
p329
aS'Outlines/Type'
p330
aS'OutputIntents/DestOutputProfile'
p331
aS'OutputIntents/DestOutputProfile/Filter'
p332
aS'OutputIntents/DestOutputProfile/Length'
p333
aS'OutputIntents/DestOutputProfile/N'
p334
aS'OutputIntents/Info'
p335
aS'OutputIntents/OutputConditionIdentifier'
p336
aS'OutputIntents/RegistryName'
p337
aS'OutputIntents/S'
p338
aS'OutputIntents/Type'
p339
aS'PageLabels'
p340
aS'PageLabels/Nums'
p341
aS'PageLabels/Nums/P'
p342
aS'PageLabels/Nums/S'
p343
aS'PageLabels/Nums/St'
p344
aS'PageLayout'
p345
aS'PageMode'
p346
aS'Pages'
p347
aS'Pages/Annots'
p348
aS'Pages/Annots/A'
p349
aS'Pages/Annots/A/D'
p350
aS'Pages/Annots/A/S'
p351
aS'Pages/Annots/A/Type'
p352
aS'Pages/Annots/A/URI'
p353
aS'Pages/Annots/AP/N'
p354
aS'Pages/Annots/AP/N/Name'
p355
aS'Pages/Annots/BS/S'
p356
aS'Pages/Annots/BS/Type'
p357
aS'Pages/Annots/BS/W'
p358
aS'Pages/Annots/Border'
p359
aS'Pages/Annots/C'
p360
aS'Pages/Annots/DA'
p361
aS'Pages/Annots/Dest'
p362
aS'Pages/Annots/F'
p363
aS'Pages/Annots/FT'
p364
aS'Pages/Annots/Ff'
p365
aS'Pages/Annots/H'
p366
aS'Pages/Annots/M'
p367
aS'Pages/Annots/MK/TP'
p368
aS'Pages/Annots/NM'
p369
aS'Pages/Annots/P'
p370
aS'Pages/Annots/Rect'
p371
aS'Pages/Annots/StructParent'
p372
aS'Pages/Annots/Subtype'
p373
aS'Pages/Annots/T'
p374
aS'Pages/Annots/TM'
p375
aS'Pages/Annots/TU'
p376
aS'Pages/Annots/Type'
p377
aS'Pages/ArtBox'
p378
aS'Pages/BleedBox'
p379
aS'Pages/Contents'
p380
aS'Pages/Contents/Filter'
p381
aS'Pages/Contents/Length'
p382
aS'Pages/Count'
p383
aS'Pages/CropBox'
p384
aS'Pages/Group'
p385
aS'Pages/Group/CS'
p386
aS'Pages/Group/CS/Filter'
p387
aS'Pages/Group/CS/Length'
p388
aS'Pages/Group/CS/N'
p389
aS'Pages/Group/I'
p390
aS'Pages/Group/S'
p391
aS'Pages/Group/Type'
p392
aS'Pages/LastModified'
p393
aS'Pages/MediaBox'
p394
aS'Pages/Resources'
p395
aS'Pages/Resources/ColorSpace'
p396
aS'Pages/Resources/ColorSpace/Name'
p397
aS'Pages/Resources/ColorSpace/Name/Alternate'
p398
aS'Pages/Resources/ColorSpace/Name/BitsPerSample'
p399
aS'Pages/Resources/ColorSpace/Name/C0'
p400
aS'Pages/Resources/ColorSpace/Name/C1'
p401
aS'Pages/Resources/ColorSpace/Name/Decode'
p402
aS'Pages/Resources/ColorSpace/Name/Domain'
p403
aS'Pages/Resources/ColorSpace/Name/Encode'
p404
aS'Pages/Resources/ColorSpace/Name/Filter'
p405
aS'Pages/Resources/ColorSpace/Name/FunctionType'
p406
aS'Pages/Resources/ColorSpace/Name/Gamma'
p407
aS'Pages/Resources/ColorSpace/Name/Length'
p408
aS'Pages/Resources/ColorSpace/Name/Matrix'
p409
aS'Pages/Resources/ColorSpace/Name/N'
p410
aS'Pages/Resources/ColorSpace/Name/Process'
p411
aS'Pages/Resources/ColorSpace/Name/Process/ColorSpace'
p412
aS'Pages/Resources/ColorSpace/Name/Process/Components'
p413
aS'Pages/Resources/ColorSpace/Name/Range'
p414
aS'Pages/Resources/ColorSpace/Name/Size'
p415
aS'Pages/Resources/ColorSpace/Name/Subtype'
p416
aS'Pages/Resources/ColorSpace/Name/WhitePoint'
p417
aS'Pages/Resources/ExtGState'
p418
aS'Pages/Resources/ExtGState/Name'
p419
aS'Pages/Resources/ExtGState/Name/AIS'
p420
aS'Pages/Resources/ExtGState/Name/BG2'
p421
aS'Pages/Resources/ExtGState/Name/BM'
p422
aS'Pages/Resources/ExtGState/Name/CA'
p423
aS'Pages/Resources/ExtGState/Name/HT'
p424
aS'Pages/Resources/ExtGState/Name/OP'
p425
aS'Pages/Resources/ExtGState/Name/OPM'
p426
aS'Pages/Resources/ExtGState/Name/SA'
p427
aS'Pages/Resources/ExtGState/Name/SM'
p428
aS'Pages/Resources/ExtGState/Name/SMask'
p429
aS'Pages/Resources/ExtGState/Name/SMask/BC'
p430
aS'Pages/Resources/ExtGState/Name/SMask/G'
p431
aS'Pages/Resources/ExtGState/Name/SMask/G/BBox'
p432
aS'Pages/Resources/ExtGState/Name/SMask/G/Filter'
p433
aS'Pages/Resources/ExtGState/Name/SMask/G/Group'
p434
aS'Pages/Resources/ExtGState/Name/SMask/G/Group/CS'
p435
aS'Pages/Resources/ExtGState/Name/SMask/G/Group/I'
p436
aS'Pages/Resources/ExtGState/Name/SMask/G/Group/K'
p437
aS'Pages/Resources/ExtGState/Name/SMask/G/Group/S'
p438
aS'Pages/Resources/ExtGState/Name/SMask/G/Group/Type'
p439
aS'Pages/Resources/ExtGState/Name/SMask/G/Length'
p440
aS'Pages/Resources/ExtGState/Name/SMask/G/Matrix'
p441
aS'Pages/Resources/ExtGState/Name/SMask/G/Resources/ExtGState/Name'
p442
aS'Pages/Resources/ExtGState/Name/SMask/G/Resources/ProcSet'
p443
aS'Pages/Resources/ExtGState/Name/SMask/G/Resources/XObject/Name'
p444
aS'Pages/Resources/ExtGState/Name/SMask/G/Resources/XObject/Name/BitsPerComponent'
p445
aS'Pages/Resources/ExtGState/Name/SMask/G/Resources/XObject/Name/ColorSpace'
p446
aS'Pages/Resources/ExtGState/Name/SMask/G/Resources/XObject/Name/Filter'
p447
aS'Pages/Resources/ExtGState/Name/SMask/G/Resources/XObject/Name/Height'
p448
aS'Pages/Resources/ExtGState/Name/SMask/G/Resources/XObject/Name/Intent'
p449
aS'Pages/Resources/ExtGState/Name/SMask/G/Resources/XObject/Name/Length'
p450
aS'Pages/Resources/ExtGState/Name/SMask/G/Resources/XObject/Name/Name'
p451
aS'Pages/Resources/ExtGState/Name/SMask/G/Resources/XObject/Name/Subtype'
p452
aS'Pages/Resources/ExtGState/Name/SMask/G/Resources/XObject/Name/Type'
p453
aS'Pages/Resources/ExtGState/Name/SMask/G/Resources/XObject/Name/Width'
p454
aS'Pages/Resources/ExtGState/Name/SMask/G/Subtype'
p455
aS'Pages/Resources/ExtGState/Name/SMask/S'
p456
aS'Pages/Resources/ExtGState/Name/SMask/Type'
p457
aS'Pages/Resources/ExtGState/Name/TR'
p458
aS'Pages/Resources/ExtGState/Name/TR2'
p459
aS'Pages/Resources/ExtGState/Name/Type'
p460
aS'Pages/Resources/ExtGState/Name/UCR2'
p461
aS'Pages/Resources/ExtGState/Name/ca'
p462
aS'Pages/Resources/ExtGState/Name/op'
p463
aS'Pages/Resources/Font'
p464
aS'Pages/Resources/Font/Name'
p465
aS'Pages/Resources/Font/Name/BaseFont'
p466
aS'Pages/Resources/Font/Name/DescendantFonts'
p467
aS'Pages/Resources/Font/Name/DescendantFonts/BaseFont'
p468
aS'Pages/Resources/Font/Name/DescendantFonts/CIDSystemInfo'
p469
aS'Pages/Resources/Font/Name/DescendantFonts/CIDSystemInfo/Ordering'
p470
aS'Pages/Resources/Font/Name/DescendantFonts/CIDSystemInfo/Registry'
p471
aS'Pages/Resources/Font/Name/DescendantFonts/CIDSystemInfo/Supplement'
p472
aS'Pages/Resources/Font/Name/DescendantFonts/CIDToGIDMap'
p473
aS'Pages/Resources/Font/Name/DescendantFonts/DW'
p474
aS'Pages/Resources/Font/Name/DescendantFonts/FontDescriptor'
p475
aS'Pages/Resources/Font/Name/DescendantFonts/FontDescriptor/Ascent'
p476
aS'Pages/Resources/Font/Name/DescendantFonts/FontDescriptor/AvgWidth'
p477
aS'Pages/Resources/Font/Name/DescendantFonts/FontDescriptor/CIDSet'
p478
aS'Pages/Resources/Font/Name/DescendantFonts/FontDescriptor/CIDSet/Filter'
p479
aS'Pages/Resources/Font/Name/DescendantFonts/FontDescriptor/CIDSet/Length'
p480
aS'Pages/Resources/Font/Name/DescendantFonts/FontDescriptor/CapHeight'
p481
aS'Pages/Resources/Font/Name/DescendantFonts/FontDescriptor/Descent'
p482
aS'Pages/Resources/Font/Name/DescendantFonts/FontDescriptor/Flags'
p483
aS'Pages/Resources/Font/Name/DescendantFonts/FontDescriptor/FontBBox'
p484
aS'Pages/Resources/Font/Name/DescendantFonts/FontDescriptor/FontFamily'
p485
aS'Pages/Resources/Font/Name/DescendantFonts/FontDescriptor/FontFile2'
p486
aS'Pages/Resources/Font/Name/DescendantFonts/FontDescriptor/FontFile2/Filter'
p487
aS'Pages/Resources/Font/Name/DescendantFonts/FontDescriptor/FontFile2/Length'
p488
aS'Pages/Resources/Font/Name/DescendantFonts/FontDescriptor/FontFile2/Length1'
p489
aS'Pages/Resources/Font/Name/DescendantFonts/FontDescriptor/FontFile3'
p490
aS'Pages/Resources/Font/Name/DescendantFonts/FontDescriptor/FontFile3/Filter'
p491
aS'Pages/Resources/Font/Name/DescendantFonts/FontDescriptor/FontFile3/Length'
p492
aS'Pages/Resources/Font/Name/DescendantFonts/FontDescriptor/FontFile3/Subtype'
p493
aS'Pages/Resources/Font/Name/DescendantFonts/FontDescriptor/FontName'
p494
aS'Pages/Resources/Font/Name/DescendantFonts/FontDescriptor/FontStretch'
p495
aS'Pages/Resources/Font/Name/DescendantFonts/FontDescriptor/FontWeight'
p496
aS'Pages/Resources/Font/Name/DescendantFonts/FontDescriptor/ItalicAngle'
p497
aS'Pages/Resources/Font/Name/DescendantFonts/FontDescriptor/Lang'
p498
aS'Pages/Resources/Font/Name/DescendantFonts/FontDescriptor/Leading'
p499
aS'Pages/Resources/Font/Name/DescendantFonts/FontDescriptor/MaxWidth'
p500
aS'Pages/Resources/Font/Name/DescendantFonts/FontDescriptor/MissingWidth'
p501
aS'Pages/Resources/Font/Name/DescendantFonts/FontDescriptor/StemH'
p502
aS'Pages/Resources/Font/Name/DescendantFonts/FontDescriptor/StemV'
p503
aS'Pages/Resources/Font/Name/DescendantFonts/FontDescriptor/Type'
p504
aS'Pages/Resources/Font/Name/DescendantFonts/FontDescriptor/XHeight'
p505
aS'Pages/Resources/Font/Name/DescendantFonts/Subtype'
p506
aS'Pages/Resources/Font/Name/DescendantFonts/Type'
p507
aS'Pages/Resources/Font/Name/DescendantFonts/W'
p508
aS'Pages/Resources/Font/Name/Encoding'
p509
aS'Pages/Resources/Font/Name/Encoding/BaseEncoding'
p510
aS'Pages/Resources/Font/Name/Encoding/Differences'
p511
aS'Pages/Resources/Font/Name/Encoding/Type'
p512
aS'Pages/Resources/Font/Name/FirstChar'
p513
aS'Pages/Resources/Font/Name/FontDescriptor'
p514
aS'Pages/Resources/Font/Name/FontDescriptor/Ascent'
p515
aS'Pages/Resources/Font/Name/FontDescriptor/AvgWidth'
p516
aS'Pages/Resources/Font/Name/FontDescriptor/CapHeight'
p517
aS'Pages/Resources/Font/Name/FontDescriptor/CharSet'
p518
aS'Pages/Resources/Font/Name/FontDescriptor/Descent'
p519
aS'Pages/Resources/Font/Name/FontDescriptor/Flags'
p520
aS'Pages/Resources/Font/Name/FontDescriptor/FontBBox'
p521
aS'Pages/Resources/Font/Name/FontDescriptor/FontFamily'
p522
aS'Pages/Resources/Font/Name/FontDescriptor/FontFile'
p523
aS'Pages/Resources/Font/Name/FontDescriptor/FontFile/Filter'
p524
aS'Pages/Resources/Font/Name/FontDescriptor/FontFile/Length'
p525
aS'Pages/Resources/Font/Name/FontDescriptor/FontFile/Length1'
p526
aS'Pages/Resources/Font/Name/FontDescriptor/FontFile/Length2'
p527
aS'Pages/Resources/Font/Name/FontDescriptor/FontFile/Length3'
p528
aS'Pages/Resources/Font/Name/FontDescriptor/FontFile2'
p529
aS'Pages/Resources/Font/Name/FontDescriptor/FontFile2/Filter'
p530
aS'Pages/Resources/Font/Name/FontDescriptor/FontFile2/Length'
p531
aS'Pages/Resources/Font/Name/FontDescriptor/FontFile2/Length1'
p532
aS'Pages/Resources/Font/Name/FontDescriptor/FontFile3'
p533
aS'Pages/Resources/Font/Name/FontDescriptor/FontFile3/Filter'
p534
aS'Pages/Resources/Font/Name/FontDescriptor/FontFile3/Length'
p535
aS'Pages/Resources/Font/Name/FontDescriptor/FontFile3/Length1'
p536
aS'Pages/Resources/Font/Name/FontDescriptor/FontFile3/Subtype'
p537
aS'Pages/Resources/Font/Name/FontDescriptor/FontName'
p538
aS'Pages/Resources/Font/Name/FontDescriptor/FontStretch'
p539
aS'Pages/Resources/Font/Name/FontDescriptor/FontWeight'
p540
aS'Pages/Resources/Font/Name/FontDescriptor/ItalicAngle'
p541
aS'Pages/Resources/Font/Name/FontDescriptor/Leading'
p542
aS'Pages/Resources/Font/Name/FontDescriptor/MaxWidth'
p543
aS'Pages/Resources/Font/Name/FontDescriptor/MissingWidth'
p544
aS'Pages/Resources/Font/Name/FontDescriptor/StemH'
p545
aS'Pages/Resources/Font/Name/FontDescriptor/StemV'
p546
aS'Pages/Resources/Font/Name/FontDescriptor/Type'
p547
aS'Pages/Resources/Font/Name/FontDescriptor/XHeight'
p548
aS'Pages/Resources/Font/Name/LastChar'
p549
aS'Pages/Resources/Font/Name/Name'
p550
aS'Pages/Resources/Font/Name/Subtype'
p551
aS'Pages/Resources/Font/Name/ToUnicode'
p552
aS'Pages/Resources/Font/Name/ToUnicode/Filter'
p553
aS'Pages/Resources/Font/Name/ToUnicode/Length'
p554
aS'Pages/Resources/Font/Name/Type'
p555
aS'Pages/Resources/Font/Name/Widths'
p556
aS'Pages/Resources/Pattern/Name'
p557
aS'Pages/Resources/Pattern/Name/BBox'
p558
aS'Pages/Resources/Pattern/Name/Filter'
p559
aS'Pages/Resources/Pattern/Name/Length'
p560
aS'Pages/Resources/Pattern/Name/Matrix'
p561
aS'Pages/Resources/Pattern/Name/PaintType'
p562
aS'Pages/Resources/Pattern/Name/PatternType'
p563
aS'Pages/Resources/Pattern/Name/Resources'
p564
aS'Pages/Resources/Pattern/Name/Resources/ColorSpace/Name'
p565
aS'Pages/Resources/Pattern/Name/Resources/ExtGState/Name'
p566
aS'Pages/Resources/Pattern/Name/Resources/ProcSet'
p567
aS'Pages/Resources/Pattern/Name/Resources/XObject/Name'
p568
aS'Pages/Resources/Pattern/Name/Resources/XObject/Name/BitsPerComponent'
p569
aS'Pages/Resources/Pattern/Name/Resources/XObject/Name/Height'
p570
aS'Pages/Resources/Pattern/Name/Resources/XObject/Name/Length'
p571
aS'Pages/Resources/Pattern/Name/Resources/XObject/Name/Subtype'
p572
aS'Pages/Resources/Pattern/Name/Resources/XObject/Name/Type'
p573
aS'Pages/Resources/Pattern/Name/Resources/XObject/Name/Width'
p574
aS'Pages/Resources/Pattern/Name/Shading/ColorSpace'
p575
aS'Pages/Resources/Pattern/Name/Shading/Coords'
p576
aS'Pages/Resources/Pattern/Name/Shading/Extend'
p577
aS'Pages/Resources/Pattern/Name/Shading/Function'
p578
aS'Pages/Resources/Pattern/Name/Shading/Function/Domain'
p579
aS'Pages/Resources/Pattern/Name/Shading/Function/Encode'
p580
aS'Pages/Resources/Pattern/Name/Shading/Function/FunctionType'
p581
aS'Pages/Resources/Pattern/Name/Shading/ShadingType'
p582
aS'Pages/Resources/Pattern/Name/TilingType'
p583
aS'Pages/Resources/Pattern/Name/Type'
p584
aS'Pages/Resources/Pattern/Name/XStep'
p585
aS'Pages/Resources/Pattern/Name/YStep'
p586
aS'Pages/Resources/ProcSet'
p587
aS'Pages/Resources/Properties/Name'
p588
aS'Pages/Resources/Properties/Name/Author'
p589
aS'Pages/Resources/Properties/Name/Creator'
p590
aS'Pages/Resources/Properties/Name/Metadata'
p591
aS'Pages/Resources/Properties/Name/Metadata/Filter'
p592
aS'Pages/Resources/Properties/Name/Metadata/Length'
p593
aS'Pages/Resources/Properties/Name/Metadata/Subtype'
p594
aS'Pages/Resources/Properties/Name/Metadata/Type'
p595
aS'Pages/Resources/Properties/Name/OCGs'
p596
aS'Pages/Resources/Properties/Name/Title'
p597
aS'Pages/Resources/Properties/Name/Type'
p598
aS'Pages/Resources/Shading/Name'
p599
aS'Pages/Resources/Shading/Name/AntiAlias'
p600
aS'Pages/Resources/Shading/Name/BBox'
p601
aS'Pages/Resources/Shading/Name/ColorSpace'
p602
aS'Pages/Resources/Shading/Name/Coords'
p603
aS'Pages/Resources/Shading/Name/Domain'
p604
aS'Pages/Resources/Shading/Name/Extend'
p605
aS'Pages/Resources/Shading/Name/Function'
p606
aS'Pages/Resources/Shading/Name/Function/BitsPerSample'
p607
aS'Pages/Resources/Shading/Name/Function/Bounds'
p608
aS'Pages/Resources/Shading/Name/Function/Decode'
p609
aS'Pages/Resources/Shading/Name/Function/Domain'
p610
aS'Pages/Resources/Shading/Name/Function/Encode'
p611
aS'Pages/Resources/Shading/Name/Function/Filter'
p612
aS'Pages/Resources/Shading/Name/Function/FunctionType'
p613
aS'Pages/Resources/Shading/Name/Function/Functions'
p614
aS'Pages/Resources/Shading/Name/Function/Functions/BitsPerSample'
p615
aS'Pages/Resources/Shading/Name/Function/Functions/C0'
p616
aS'Pages/Resources/Shading/Name/Function/Functions/C1'
p617
aS'Pages/Resources/Shading/Name/Function/Functions/Decode'
p618
aS'Pages/Resources/Shading/Name/Function/Functions/Domain'
p619
aS'Pages/Resources/Shading/Name/Function/Functions/Encode'
p620
aS'Pages/Resources/Shading/Name/Function/Functions/Filter'
p621
aS'Pages/Resources/Shading/Name/Function/Functions/FunctionType'
p622
aS'Pages/Resources/Shading/Name/Function/Functions/Length'
p623
aS'Pages/Resources/Shading/Name/Function/Functions/N'
p624
aS'Pages/Resources/Shading/Name/Function/Functions/Order'
p625
aS'Pages/Resources/Shading/Name/Function/Functions/Range'
p626
aS'Pages/Resources/Shading/Name/Function/Functions/Size'
p627
aS'Pages/Resources/Shading/Name/Function/Length'
p628
aS'Pages/Resources/Shading/Name/Function/Range'
p629
aS'Pages/Resources/Shading/Name/Function/Size'
p630
aS'Pages/Resources/Shading/Name/ShadingType'
p631
aS'Pages/Resources/XObject'
p632
aS'Pages/Resources/XObject/Name'
p633
aS'Pages/Resources/XObject/Name/BBox'
p634
aS'Pages/Resources/XObject/Name/BitsPerComponent'
p635
aS'Pages/Resources/XObject/Name/ColorSpace'
p636
aS'Pages/Resources/XObject/Name/ColorSpace/Alternate'
p637
aS'Pages/Resources/XObject/Name/ColorSpace/Filter'
p638
aS'Pages/Resources/XObject/Name/ColorSpace/Length'
p639
aS'Pages/Resources/XObject/Name/ColorSpace/N'
p640
aS'Pages/Resources/XObject/Name/Decode'
p641
aS'Pages/Resources/XObject/Name/DecodeParms'
p642
aS'Pages/Resources/XObject/Name/DecodeParms/BitsPerComponent'
p643
aS'Pages/Resources/XObject/Name/DecodeParms/Colors'
p644
aS'Pages/Resources/XObject/Name/DecodeParms/Columns'
p645
aS'Pages/Resources/XObject/Name/DecodeParms/K'
p646
aS'Pages/Resources/XObject/Name/DecodeParms/Predictor'
p647
aS'Pages/Resources/XObject/Name/DecodeParms/Rows'
p648
aS'Pages/Resources/XObject/Name/Filter'
p649
aS'Pages/Resources/XObject/Name/FormType'
p650
aS'Pages/Resources/XObject/Name/Group'
p651
aS'Pages/Resources/XObject/Name/Group/CS'
p652
aS'Pages/Resources/XObject/Name/Group/I'
p653
aS'Pages/Resources/XObject/Name/Group/K'
p654
aS'Pages/Resources/XObject/Name/Group/S'
p655
aS'Pages/Resources/XObject/Name/Group/Type'
p656
aS'Pages/Resources/XObject/Name/Height'
p657
aS'Pages/Resources/XObject/Name/ImageMask'
p658
aS'Pages/Resources/XObject/Name/Intent'
p659
aS'Pages/Resources/XObject/Name/Interpolate'
p660
aS'Pages/Resources/XObject/Name/Length'
p661
aS'Pages/Resources/XObject/Name/Mask'
p662
aS'Pages/Resources/XObject/Name/Matrix'
p663
aS'Pages/Resources/XObject/Name/Metadata'
p664
aS'Pages/Resources/XObject/Name/Metadata/Length'
p665
aS'Pages/Resources/XObject/Name/Metadata/Subtype'
p666
aS'Pages/Resources/XObject/Name/Metadata/Type'
p667
aS'Pages/Resources/XObject/Name/Name'
p668
aS'Pages/Resources/XObject/Name/Resources'
p669
aS'Pages/Resources/XObject/Name/Resources/ColorSpace/Name'
p670
aS'Pages/Resources/XObject/Name/Resources/ColorSpace/Name/Filter'
p671
aS'Pages/Resources/XObject/Name/Resources/ColorSpace/Name/Length'
p672
aS'Pages/Resources/XObject/Name/Resources/ExtGState/Name'
p673
aS'Pages/Resources/XObject/Name/Resources/ExtGState/Name/AIS'
p674
aS'Pages/Resources/XObject/Name/Resources/ExtGState/Name/BM'
p675
aS'Pages/Resources/XObject/Name/Resources/ExtGState/Name/CA'
p676
aS'Pages/Resources/XObject/Name/Resources/ExtGState/Name/OP'
p677
aS'Pages/Resources/XObject/Name/Resources/ExtGState/Name/OPM'
p678
aS'Pages/Resources/XObject/Name/Resources/ExtGState/Name/SA'
p679
aS'Pages/Resources/XObject/Name/Resources/ExtGState/Name/SMask'
p680
aS'Pages/Resources/XObject/Name/Resources/ExtGState/Name/SMask/BC'
p681
aS'Pages/Resources/XObject/Name/Resources/ExtGState/Name/SMask/G'
p682
aS'Pages/Resources/XObject/Name/Resources/ExtGState/Name/SMask/G/BBox'
p683
aS'Pages/Resources/XObject/Name/Resources/ExtGState/Name/SMask/G/Filter'
p684
aS'Pages/Resources/XObject/Name/Resources/ExtGState/Name/SMask/G/Group'
p685
aS'Pages/Resources/XObject/Name/Resources/ExtGState/Name/SMask/G/Group/CS'
p686
aS'Pages/Resources/XObject/Name/Resources/ExtGState/Name/SMask/G/Group/I'
p687
aS'Pages/Resources/XObject/Name/Resources/ExtGState/Name/SMask/G/Group/K'
p688
aS'Pages/Resources/XObject/Name/Resources/ExtGState/Name/SMask/G/Group/S'
p689
aS'Pages/Resources/XObject/Name/Resources/ExtGState/Name/SMask/G/Group/Type'
p690
aS'Pages/Resources/XObject/Name/Resources/ExtGState/Name/SMask/G/Length'
p691
aS'Pages/Resources/XObject/Name/Resources/ExtGState/Name/SMask/G/Matrix'
p692
aS'Pages/Resources/XObject/Name/Resources/ExtGState/Name/SMask/G/Resources/ExtGState/Name'
p693
aS'Pages/Resources/XObject/Name/Resources/ExtGState/Name/SMask/G/Resources/ProcSet'
p694
aS'Pages/Resources/XObject/Name/Resources/ExtGState/Name/SMask/G/Resources/XObject/Name'
p695
aS'Pages/Resources/XObject/Name/Resources/ExtGState/Name/SMask/G/Resources/XObject/Name/BitsPerComponent'
p696
aS'Pages/Resources/XObject/Name/Resources/ExtGState/Name/SMask/G/Resources/XObject/Name/ColorSpace'
p697
aS'Pages/Resources/XObject/Name/Resources/ExtGState/Name/SMask/G/Resources/XObject/Name/Filter'
p698
aS'Pages/Resources/XObject/Name/Resources/ExtGState/Name/SMask/G/Resources/XObject/Name/Height'
p699
aS'Pages/Resources/XObject/Name/Resources/ExtGState/Name/SMask/G/Resources/XObject/Name/Intent'
p700
aS'Pages/Resources/XObject/Name/Resources/ExtGState/Name/SMask/G/Resources/XObject/Name/Length'
p701
aS'Pages/Resources/XObject/Name/Resources/ExtGState/Name/SMask/G/Resources/XObject/Name/Name'
p702
aS'Pages/Resources/XObject/Name/Resources/ExtGState/Name/SMask/G/Resources/XObject/Name/Subtype'
p703
aS'Pages/Resources/XObject/Name/Resources/ExtGState/Name/SMask/G/Resources/XObject/Name/Type'
p704
aS'Pages/Resources/XObject/Name/Resources/ExtGState/Name/SMask/G/Resources/XObject/Name/Width'
p705
aS'Pages/Resources/XObject/Name/Resources/ExtGState/Name/SMask/G/Subtype'
p706
aS'Pages/Resources/XObject/Name/Resources/ExtGState/Name/SMask/S'
p707
aS'Pages/Resources/XObject/Name/Resources/ExtGState/Name/SMask/Type'
p708
aS'Pages/Resources/XObject/Name/Resources/ExtGState/Name/Type'
p709
aS'Pages/Resources/XObject/Name/Resources/ExtGState/Name/ca'
p710
aS'Pages/Resources/XObject/Name/Resources/ExtGState/Name/op'
p711
aS'Pages/Resources/XObject/Name/Resources/Font/Name'
p712
aS'Pages/Resources/XObject/Name/Resources/Font/Name/BaseFont'
p713
aS'Pages/Resources/XObject/Name/Resources/Font/Name/Encoding'
p714
aS'Pages/Resources/XObject/Name/Resources/Font/Name/FirstChar'
p715
aS'Pages/Resources/XObject/Name/Resources/Font/Name/FontDescriptor'
p716
aS'Pages/Resources/XObject/Name/Resources/Font/Name/FontDescriptor/Ascent'
p717
aS'Pages/Resources/XObject/Name/Resources/Font/Name/FontDescriptor/CapHeight'
p718
aS'Pages/Resources/XObject/Name/Resources/Font/Name/FontDescriptor/Descent'
p719
aS'Pages/Resources/XObject/Name/Resources/Font/Name/FontDescriptor/Flags'
p720
aS'Pages/Resources/XObject/Name/Resources/Font/Name/FontDescriptor/FontBBox'
p721
aS'Pages/Resources/XObject/Name/Resources/Font/Name/FontDescriptor/FontFamily'
p722
aS'Pages/Resources/XObject/Name/Resources/Font/Name/FontDescriptor/FontFile2'
p723
aS'Pages/Resources/XObject/Name/Resources/Font/Name/FontDescriptor/FontFile2/Filter'
p724
aS'Pages/Resources/XObject/Name/Resources/Font/Name/FontDescriptor/FontFile2/Length'
p725
aS'Pages/Resources/XObject/Name/Resources/Font/Name/FontDescriptor/FontFile2/Length1'
p726
aS'Pages/Resources/XObject/Name/Resources/Font/Name/FontDescriptor/FontName'
p727
aS'Pages/Resources/XObject/Name/Resources/Font/Name/FontDescriptor/FontStretch'
p728
aS'Pages/Resources/XObject/Name/Resources/Font/Name/FontDescriptor/FontWeight'
p729
aS'Pages/Resources/XObject/Name/Resources/Font/Name/FontDescriptor/ItalicAngle'
p730
aS'Pages/Resources/XObject/Name/Resources/Font/Name/FontDescriptor/StemV'
p731
aS'Pages/Resources/XObject/Name/Resources/Font/Name/FontDescriptor/Type'
p732
aS'Pages/Resources/XObject/Name/Resources/Font/Name/FontDescriptor/XHeight'
p733
aS'Pages/Resources/XObject/Name/Resources/Font/Name/LastChar'
p734
aS'Pages/Resources/XObject/Name/Resources/Font/Name/Subtype'
p735
aS'Pages/Resources/XObject/Name/Resources/Font/Name/ToUnicode'
p736
aS'Pages/Resources/XObject/Name/Resources/Font/Name/ToUnicode/Filter'
p737
aS'Pages/Resources/XObject/Name/Resources/Font/Name/ToUnicode/Length'
p738
aS'Pages/Resources/XObject/Name/Resources/Font/Name/Type'
p739
aS'Pages/Resources/XObject/Name/Resources/Font/Name/Widths'
p740
aS'Pages/Resources/XObject/Name/Resources/ProcSet'
p741
aS'Pages/Resources/XObject/Name/Resources/Properties/Name/Metadata'
p742
aS'Pages/Resources/XObject/Name/Resources/Properties/Name/Metadata/Length'
p743
aS'Pages/Resources/XObject/Name/Resources/Properties/Name/Metadata/Subtype'
p744
aS'Pages/Resources/XObject/Name/Resources/Properties/Name/Metadata/Type'
p745
aS'Pages/Resources/XObject/Name/Resources/Shading/Name'
p746
aS'Pages/Resources/XObject/Name/Resources/Shading/Name/AntiAlias'
p747
aS'Pages/Resources/XObject/Name/Resources/Shading/Name/ColorSpace'
p748
aS'Pages/Resources/XObject/Name/Resources/Shading/Name/Coords'
p749
aS'Pages/Resources/XObject/Name/Resources/Shading/Name/Domain'
p750
aS'Pages/Resources/XObject/Name/Resources/Shading/Name/Extend'
p751
aS'Pages/Resources/XObject/Name/Resources/Shading/Name/Function'
p752
aS'Pages/Resources/XObject/Name/Resources/Shading/Name/Function/Bounds'
p753
aS'Pages/Resources/XObject/Name/Resources/Shading/Name/Function/Domain'
p754
aS'Pages/Resources/XObject/Name/Resources/Shading/Name/Function/Encode'
p755
aS'Pages/Resources/XObject/Name/Resources/Shading/Name/Function/FunctionType'
p756
aS'Pages/Resources/XObject/Name/Resources/Shading/Name/Function/Functions'
p757
aS'Pages/Resources/XObject/Name/Resources/Shading/Name/Function/Functions/Domain'
p758
aS'Pages/Resources/XObject/Name/Resources/Shading/Name/Function/Functions/FunctionType'
p759
aS'Pages/Resources/XObject/Name/Resources/Shading/Name/ShadingType'
p760
aS'Pages/Resources/XObject/Name/Resources/XObject/Name'
p761
aS'Pages/Resources/XObject/Name/Resources/XObject/Name/BBox'
p762
aS'Pages/Resources/XObject/Name/Resources/XObject/Name/BitsPerComponent'
p763
aS'Pages/Resources/XObject/Name/Resources/XObject/Name/ColorSpace'
p764
aS'Pages/Resources/XObject/Name/Resources/XObject/Name/Decode'
p765
aS'Pages/Resources/XObject/Name/Resources/XObject/Name/Filter'
p766
aS'Pages/Resources/XObject/Name/Resources/XObject/Name/Group'
p767
aS'Pages/Resources/XObject/Name/Resources/XObject/Name/Group/CS'
p768
aS'Pages/Resources/XObject/Name/Resources/XObject/Name/Group/I'
p769
aS'Pages/Resources/XObject/Name/Resources/XObject/Name/Group/K'
p770
aS'Pages/Resources/XObject/Name/Resources/XObject/Name/Group/S'
p771
aS'Pages/Resources/XObject/Name/Resources/XObject/Name/Group/Type'
p772
aS'Pages/Resources/XObject/Name/Resources/XObject/Name/Height'
p773
aS'Pages/Resources/XObject/Name/Resources/XObject/Name/Intent'
p774
aS'Pages/Resources/XObject/Name/Resources/XObject/Name/Interpolate'
p775
aS'Pages/Resources/XObject/Name/Resources/XObject/Name/Length'
p776
aS'Pages/Resources/XObject/Name/Resources/XObject/Name/Matrix'
p777
aS'Pages/Resources/XObject/Name/Resources/XObject/Name/Metadata'
p778
aS'Pages/Resources/XObject/Name/Resources/XObject/Name/Metadata/Length'
p779
aS'Pages/Resources/XObject/Name/Resources/XObject/Name/Metadata/Subtype'
p780
aS'Pages/Resources/XObject/Name/Resources/XObject/Name/Metadata/Type'
p781
aS'Pages/Resources/XObject/Name/Resources/XObject/Name/Name'
p782
aS'Pages/Resources/XObject/Name/Resources/XObject/Name/Resources/ColorSpace/Name'
p783
aS'Pages/Resources/XObject/Name/Resources/XObject/Name/Resources/ExtGState/Name'
p784
aS'Pages/Resources/XObject/Name/Resources/XObject/Name/Resources/ProcSet'
p785
aS'Pages/Resources/XObject/Name/Resources/XObject/Name/Resources/XObject/Name'
p786
aS'Pages/Resources/XObject/Name/Resources/XObject/Name/Resources/XObject/Name/BitsPerComponent'
p787
aS'Pages/Resources/XObject/Name/Resources/XObject/Name/Resources/XObject/Name/ColorSpace'
p788
aS'Pages/Resources/XObject/Name/Resources/XObject/Name/Resources/XObject/Name/Filter'
p789
aS'Pages/Resources/XObject/Name/Resources/XObject/Name/Resources/XObject/Name/Height'
p790
aS'Pages/Resources/XObject/Name/Resources/XObject/Name/Resources/XObject/Name/Length'
p791
aS'Pages/Resources/XObject/Name/Resources/XObject/Name/Resources/XObject/Name/Subtype'
p792
aS'Pages/Resources/XObject/Name/Resources/XObject/Name/Resources/XObject/Name/Type'
p793
aS'Pages/Resources/XObject/Name/Resources/XObject/Name/Resources/XObject/Name/Width'
p794
aS'Pages/Resources/XObject/Name/Resources/XObject/Name/SMask'
p795
aS'Pages/Resources/XObject/Name/Resources/XObject/Name/SMask/BitsPerComponent'
p796
aS'Pages/Resources/XObject/Name/Resources/XObject/Name/SMask/ColorSpace'
p797
aS'Pages/Resources/XObject/Name/Resources/XObject/Name/SMask/Filter'
p798
aS'Pages/Resources/XObject/Name/Resources/XObject/Name/SMask/Height'
p799
aS'Pages/Resources/XObject/Name/Resources/XObject/Name/SMask/Intent'
p800
aS'Pages/Resources/XObject/Name/Resources/XObject/Name/SMask/Length'
p801
aS'Pages/Resources/XObject/Name/Resources/XObject/Name/SMask/Name'
p802
aS'Pages/Resources/XObject/Name/Resources/XObject/Name/SMask/Subtype'
p803
aS'Pages/Resources/XObject/Name/Resources/XObject/Name/SMask/Type'
p804
aS'Pages/Resources/XObject/Name/Resources/XObject/Name/SMask/Width'
p805
aS'Pages/Resources/XObject/Name/Resources/XObject/Name/Subtype'
p806
aS'Pages/Resources/XObject/Name/Resources/XObject/Name/Type'
p807
aS'Pages/Resources/XObject/Name/Resources/XObject/Name/Width'
p808
aS'Pages/Resources/XObject/Name/SMask'
p809
aS'Pages/Resources/XObject/Name/SMask/BitsPerComponent'
p810
aS'Pages/Resources/XObject/Name/SMask/ColorSpace'
p811
aS'Pages/Resources/XObject/Name/SMask/DecodeParms/BitsPerComponent'
p812
aS'Pages/Resources/XObject/Name/SMask/DecodeParms/Colors'
p813
aS'Pages/Resources/XObject/Name/SMask/DecodeParms/Columns'
p814
aS'Pages/Resources/XObject/Name/SMask/Filter'
p815
aS'Pages/Resources/XObject/Name/SMask/Height'
p816
aS'Pages/Resources/XObject/Name/SMask/Intent'
p817
aS'Pages/Resources/XObject/Name/SMask/Interpolate'
p818
aS'Pages/Resources/XObject/Name/SMask/Length'
p819
aS'Pages/Resources/XObject/Name/SMask/Matte'
p820
aS'Pages/Resources/XObject/Name/SMask/Metadata'
p821
aS'Pages/Resources/XObject/Name/SMask/Metadata/Length'
p822
aS'Pages/Resources/XObject/Name/SMask/Metadata/Subtype'
p823
aS'Pages/Resources/XObject/Name/SMask/Metadata/Type'
p824
aS'Pages/Resources/XObject/Name/SMask/Name'
p825
aS'Pages/Resources/XObject/Name/SMask/Subtype'
p826
aS'Pages/Resources/XObject/Name/SMask/Type'
p827
aS'Pages/Resources/XObject/Name/SMask/Width'
p828
aS'Pages/Resources/XObject/Name/Subtype'
p829
aS'Pages/Resources/XObject/Name/Type'
p830
aS'Pages/Resources/XObject/Name/Width'
p831
aS'Pages/Rotate'
p832
aS'Pages/StructParents'
p833
aS'Pages/Tabs'
p834
aS'Pages/Thumb'
p835
aS'Pages/Thumb/BitsPerComponent'
p836
aS'Pages/Thumb/ColorSpace'
p837
aS'Pages/Thumb/ColorSpace/Filter'
p838
aS'Pages/Thumb/ColorSpace/Length'
p839
aS'Pages/Thumb/Filter'
p840
aS'Pages/Thumb/Height'
p841
aS'Pages/Thumb/Length'
p842
aS'Pages/Thumb/Width'
p843
aS'Pages/TrimBox'
p844
aS'Pages/Type'
p845
aS'PieceInfo/MarkedPDF/LastModified'
p846
aS'StructTreeRoot'
p847
aS'StructTreeRoot/A'
p848
aS'StructTreeRoot/A/BBox'
p849
aS'StructTreeRoot/A/BorderColor'
p850
aS'StructTreeRoot/A/BorderStyle'
p851
aS'StructTreeRoot/A/BorderThickness'
p852
aS'StructTreeRoot/A/EndIndent'
p853
aS'StructTreeRoot/A/LineHeight'
p854
aS'StructTreeRoot/A/O'
p855
aS'StructTreeRoot/A/Placement'
p856
aS'StructTreeRoot/A/SpaceAfter'
p857
aS'StructTreeRoot/A/SpaceBefore'
p858
aS'StructTreeRoot/A/StartIndent'
p859
aS'StructTreeRoot/A/TextAlign'
p860
aS'StructTreeRoot/A/TextIndent'
p861
aS'StructTreeRoot/A/WritingMode'
p862
aS'StructTreeRoot/Alt'
p863
aS'StructTreeRoot/C'
p864
aS'StructTreeRoot/ClassMap'
p865
aS'StructTreeRoot/ClassMap/Name'
p866
aS'StructTreeRoot/ClassMap/Name/EndIndent'
p867
aS'StructTreeRoot/ClassMap/Name/LineHeight'
p868
aS'StructTreeRoot/ClassMap/Name/O'
p869
aS'StructTreeRoot/ClassMap/Name/SpaceAfter'
p870
aS'StructTreeRoot/ClassMap/Name/SpaceBefore'
p871
aS'StructTreeRoot/ClassMap/Name/StartIndent'
p872
aS'StructTreeRoot/ClassMap/Name/TextAlign'
p873
aS'StructTreeRoot/ClassMap/Name/TextIndent'
p874
aS'StructTreeRoot/ClassMap/Name/WritingMode'
p875
aS'StructTreeRoot/Info'
p876
aS'StructTreeRoot/Info/Name'
p877
aS'StructTreeRoot/Lang'
p878
aS'StructTreeRoot/MCID'
p879
aS'StructTreeRoot/Metadata'
p880
aS'StructTreeRoot/Metadata/Length'
p881
aS'StructTreeRoot/Metadata/Subtype'
p882
aS'StructTreeRoot/Metadata/Type'
p883
aS'StructTreeRoot/ParentTree'
p884
aS'StructTreeRoot/ParentTree/Limits'
p885
aS'StructTreeRoot/ParentTree/Nums'
p886
aS'StructTreeRoot/ParentTree/Nums/A'
p887
aS'StructTreeRoot/ParentTree/Nums/A/BBox'
p888
aS'StructTreeRoot/ParentTree/Nums/A/BaselineShift'
p889
aS'StructTreeRoot/ParentTree/Nums/A/BorderColor'
p890
aS'StructTreeRoot/ParentTree/Nums/A/BorderStyle'
p891
aS'StructTreeRoot/ParentTree/Nums/A/BorderThickness'
p892
aS'StructTreeRoot/ParentTree/Nums/A/ColSpan'
p893
aS'StructTreeRoot/ParentTree/Nums/A/EndIndent'
p894
aS'StructTreeRoot/ParentTree/Nums/A/LineHeight'
p895
aS'StructTreeRoot/ParentTree/Nums/A/O'
p896
aS'StructTreeRoot/ParentTree/Nums/A/Placement'
p897
aS'StructTreeRoot/ParentTree/Nums/A/RowSpan'
p898
aS'StructTreeRoot/ParentTree/Nums/A/SpaceAfter'
p899
aS'StructTreeRoot/ParentTree/Nums/A/SpaceBefore'
p900
aS'StructTreeRoot/ParentTree/Nums/A/StartIndent'
p901
aS'StructTreeRoot/ParentTree/Nums/A/TextAlign'
p902
aS'StructTreeRoot/ParentTree/Nums/A/TextDecorationColor'
p903
aS'StructTreeRoot/ParentTree/Nums/A/TextDecorationType'
p904
aS'StructTreeRoot/ParentTree/Nums/A/TextIndent'
p905
aS'StructTreeRoot/ParentTree/Nums/A/WritingMode'
p906
aS'StructTreeRoot/ParentTree/Nums/ActualText'
p907
aS'StructTreeRoot/ParentTree/Nums/Alt'
p908
aS'StructTreeRoot/ParentTree/Nums/C'
p909
aS'StructTreeRoot/ParentTree/Nums/MCID'
p910
aS'StructTreeRoot/ParentTree/Nums/Obj'
p911
aS'StructTreeRoot/ParentTree/Nums/Obj/A'
p912
aS'StructTreeRoot/ParentTree/Nums/Obj/A/S'
p913
aS'StructTreeRoot/ParentTree/Nums/Obj/BS/S'
p914
aS'StructTreeRoot/ParentTree/Nums/Obj/BS/Type'
p915
aS'StructTreeRoot/ParentTree/Nums/Obj/BS/W'
p916
aS'StructTreeRoot/ParentTree/Nums/Obj/Border'
p917
aS'StructTreeRoot/ParentTree/Nums/Obj/H'
p918
aS'StructTreeRoot/ParentTree/Nums/Obj/Rect'
p919
aS'StructTreeRoot/ParentTree/Nums/Obj/StructParent'
p920
aS'StructTreeRoot/ParentTree/Nums/Obj/Subtype'
p921
aS'StructTreeRoot/ParentTree/Nums/Obj/Type'
p922
aS'StructTreeRoot/ParentTree/Nums/Pg'
p923
aS'StructTreeRoot/ParentTree/Nums/S'
p924
aS'StructTreeRoot/ParentTree/Nums/Type'
p925
aS'StructTreeRoot/ParentTreeNextKey'
p926
aS'StructTreeRoot/Pg'
p927
aS'StructTreeRoot/Pg/Contents'
p928
aS'StructTreeRoot/Pg/Contents/Filter'
p929
aS'StructTreeRoot/Pg/Contents/Length'
p930
aS'StructTreeRoot/Pg/CropBox'
p931
aS'StructTreeRoot/Pg/MediaBox'
p932
aS'StructTreeRoot/Pg/Resources/Font/Name'
p933
aS'StructTreeRoot/Pg/Resources/Font/Name/BaseFont'
p934
aS'StructTreeRoot/Pg/Resources/Font/Name/Encoding'
p935
aS'StructTreeRoot/Pg/Resources/Font/Name/FirstChar'
p936
aS'StructTreeRoot/Pg/Resources/Font/Name/FontDescriptor'
p937
aS'StructTreeRoot/Pg/Resources/Font/Name/FontDescriptor/Ascent'
p938
aS'StructTreeRoot/Pg/Resources/Font/Name/FontDescriptor/CapHeight'
p939
aS'StructTreeRoot/Pg/Resources/Font/Name/FontDescriptor/Descent'
p940
aS'StructTreeRoot/Pg/Resources/Font/Name/FontDescriptor/Flags'
p941
aS'StructTreeRoot/Pg/Resources/Font/Name/FontDescriptor/FontBBox'
p942
aS'StructTreeRoot/Pg/Resources/Font/Name/FontDescriptor/FontName'
p943
aS'StructTreeRoot/Pg/Resources/Font/Name/FontDescriptor/ItalicAngle'
p944
aS'StructTreeRoot/Pg/Resources/Font/Name/FontDescriptor/StemV'
p945
aS'StructTreeRoot/Pg/Resources/Font/Name/FontDescriptor/Type'
p946
aS'StructTreeRoot/Pg/Resources/Font/Name/LastChar'
p947
aS'StructTreeRoot/Pg/Resources/Font/Name/Subtype'
p948
aS'StructTreeRoot/Pg/Resources/Font/Name/Type'
p949
aS'StructTreeRoot/Pg/Resources/Font/Name/Widths'
p950
aS'StructTreeRoot/Pg/Rotate'
p951
aS'StructTreeRoot/Pg/StructParents'
p952
aS'StructTreeRoot/Pg/Type'
p953
aS'StructTreeRoot/RoleMap'
p954
aS'StructTreeRoot/RoleMap/Name'
p955
aS'StructTreeRoot/S'
p956
aS'StructTreeRoot/Type'
p957
aS'Threads'
p958
aS'Type'
p959
aS'Version'
p960
aS'ViewerPreferences/Direction'
p961
a.